target datalayout = "e-m:e-p270:32:32-p271:32:32-p272:64:64-i64:64-i128:128-f80:128-n8:16:32:64-S128"
target triple = "x86_64-pc-linux-gnu"

%struct.lua_TValue = type { %union.Value, [1 x i32], i32 }
%union.Value = type { ptr }
%struct.lua_State = type { i8, i8, i8, i8, i8, i8, i8, ptr, ptr, ptr, ptr, ptr, ptr, ptr, ptr, i32, i32, i16, i16, i32, ptr, ptr, ptr, ptr, ptr }
%struct.CallInfo = type { ptr, ptr, ptr, ptr, i32, i32 }

; Function Attrs: mustprogress nounwind uwtable
define dso_local void @_ZN4Luau7CodeGen11callEpilogCEP9lua_Stateii(ptr noundef %0, i32 noundef %1, i32 noundef %2) #0 {
  %4 = alloca ptr, align 8
  %5 = alloca i32, align 4
  %6 = alloca i32, align 4
  %7 = alloca ptr, align 8
  %8 = alloca ptr, align 8
  %9 = alloca ptr, align 8
  %10 = alloca ptr, align 8
  %11 = alloca ptr, align 8
  %12 = alloca i32, align 4
  %13 = alloca ptr, align 8
  %14 = alloca ptr, align 8
  store ptr %0, ptr %4, align 8
  store i32 %1, ptr %5, align 4
  store i32 %2, ptr %6, align 4
  %15 = load ptr, ptr %4, align 8
  %16 = getelementptr inbounds %struct.lua_State, ptr %15, i32 0, i32 10
  %17 = load ptr, ptr %16, align 8
  store ptr %17, ptr %7, align 8
  %18 = load ptr, ptr %7, align 8
  %19 = getelementptr inbounds %struct.CallInfo, ptr %18, i64 -1
  store ptr %19, ptr %8, align 8
  %20 = load ptr, ptr %7, align 8
  %21 = getelementptr inbounds %struct.CallInfo, ptr %20, i32 0, i32 1
  %22 = load ptr, ptr %21, align 8
  store ptr %22, ptr %9, align 8
  %23 = load ptr, ptr %4, align 8
  %24 = getelementptr inbounds %struct.lua_State, ptr %23, i32 0, i32 7
  %25 = load ptr, ptr %24, align 8
  %26 = load i32, ptr %6, align 4
  %27 = sext i32 %26 to i64
  %28 = sub i64 0, %27
  %29 = getelementptr inbounds %struct.lua_TValue, ptr %25, i64 %28
  store ptr %29, ptr %10, align 8
  %30 = load ptr, ptr %4, align 8
  %31 = getelementptr inbounds %struct.lua_State, ptr %30, i32 0, i32 7
  %32 = load ptr, ptr %31, align 8
  store ptr %32, ptr %11, align 8
  %33 = load i32, ptr %5, align 4
  store i32 %33, ptr %12, align 4
  br label %34

34:                                               ; preds = %50, %3
  %35 = load i32, ptr %12, align 4
  %36 = icmp ne i32 %35, 0
  br i1 %36, label %37, label %41

37:                                               ; preds = %34
  %38 = load ptr, ptr %10, align 8
  %39 = load ptr, ptr %11, align 8
  %40 = icmp ult ptr %38, %39
  br label %41

41:                                               ; preds = %37, %34
  %42 = phi i1 [ false, %34 ], [ %40, %37 ]
  br i1 %42, label %43, label %53

43:                                               ; preds = %41
  %44 = load ptr, ptr %10, align 8
  %45 = getelementptr inbounds %struct.lua_TValue, ptr %44, i32 1
  store ptr %45, ptr %10, align 8
  store ptr %44, ptr %13, align 8
  %46 = load ptr, ptr %9, align 8
  %47 = getelementptr inbounds %struct.lua_TValue, ptr %46, i32 1
  store ptr %47, ptr %9, align 8
  store ptr %46, ptr %14, align 8
  %48 = load ptr, ptr %13, align 8
  %49 = load ptr, ptr %14, align 8
  call void @llvm.memcpy.p0.p0.i64(ptr align 8 %49, ptr align 8 %48, i64 16, i1 false)
  br label %50

50:                                               ; preds = %43
  %51 = load i32, ptr %12, align 4
  %52 = add nsw i32 %51, -1
  store i32 %52, ptr %12, align 4
  br label %34, !llvm.loop !9

53:                                               ; preds = %41
  br label %54

54:                                               ; preds = %58, %53
  %55 = load i32, ptr %12, align 4
  %56 = add nsw i32 %55, -1
  store i32 %56, ptr %12, align 4
  %57 = icmp sgt i32 %55, 0
  br i1 %57, label %58, label %62

58:                                               ; preds = %54
  %59 = load ptr, ptr %9, align 8
  %60 = getelementptr inbounds %struct.lua_TValue, ptr %59, i32 1
  store ptr %60, ptr %9, align 8
  %61 = getelementptr inbounds %struct.lua_TValue, ptr %59, i32 0, i32 2
  store i32 0, ptr %61, align 4
  br label %54, !llvm.loop !10

62:                                               ; preds = %54
  %63 = load ptr, ptr %8, align 8
  %64 = load ptr, ptr %4, align 8
  %65 = getelementptr inbounds %struct.lua_State, ptr %64, i32 0, i32 10
  store ptr %63, ptr %65, align 8
  %66 = load ptr, ptr %8, align 8
  %67 = getelementptr inbounds %struct.CallInfo, ptr %66, i32 0, i32 0
  %68 = load ptr, ptr %67, align 8
  %69 = load ptr, ptr %4, align 8
  %70 = getelementptr inbounds %struct.lua_State, ptr %69, i32 0, i32 8
  store ptr %68, ptr %70, align 8
  %71 = load i32, ptr %5, align 4
  %72 = icmp eq i32 %71, -1
  br i1 %72, label %73, label %75

73:                                               ; preds = %62
  %74 = load ptr, ptr %9, align 8
  br label %79

75:                                               ; preds = %62
  %76 = load ptr, ptr %8, align 8
  %77 = getelementptr inbounds %struct.CallInfo, ptr %76, i32 0, i32 2
  %78 = load ptr, ptr %77, align 8
  br label %79

79:                                               ; preds = %75, %73
  %80 = phi ptr [ %74, %73 ], [ %78, %75 ]
  %81 = load ptr, ptr %4, align 8
  %82 = getelementptr inbounds %struct.lua_State, ptr %81, i32 0, i32 7
  store ptr %80, ptr %82, align 8
  ret void
}