; Function Attrs: mustprogress nofree norecurse nosync nounwind memory(readwrite, inaccessiblemem: none) uwtable
define dso_local void @_ZN4Luau7CodeGen11callEpilogCEP9lua_Stateii(ptr nocapture noundef %0, i32 noundef %1, i32 noundef %2) local_unnamed_addr #0 {
  %4 = getelementptr inbounds i8, ptr %0, i64 32
  %5 = load ptr, ptr %4, align 8
  %6 = getelementptr inbounds i8, ptr %5, i64 -40
  %7 = getelementptr inbounds i8, ptr %5, i64 8
  %8 = load ptr, ptr %7, align 8
  %9 = getelementptr inbounds i8, ptr %0, i64 8
  %10 = load ptr, ptr %9, align 8
  %11 = icmp ne i32 %1, 0
  %12 = icmp sgt i32 %2, 0
  %13 = and i1 %11, %12
  br i1 %13, label %.lr.ph.preheader, label %.preheader

.lr.ph.preheader:                                 ; preds = %3
  %14 = zext nneg i32 %2 to i64
  %15 = sub nsw i64 0, %14
  %16 = getelementptr inbounds %struct.lua_TValue, ptr %10, i64 %15
  br label %.lr.ph

.preheader:                                       ; preds = %.lr.ph, %3
  %.025.lcssa = phi i32 [ %1, %3 ], [ %20, %.lr.ph ]
  %.0.lcssa = phi ptr [ %8, %3 ], [ %19, %.lr.ph ]
  %17 = icmp sgt i32 %.025.lcssa, 0
  br i1 %17, label %.lr.ph33, label %._crit_edge

.lr.ph:                                           ; preds = %.lr.ph.preheader, %.lr.ph
  %.029 = phi ptr [ %19, %.lr.ph ], [ %8, %.lr.ph.preheader ]
  %.02428 = phi ptr [ %18, %.lr.ph ], [ %16, %.lr.ph.preheader ]
  %.02527 = phi i32 [ %20, %.lr.ph ], [ %1, %.lr.ph.preheader ]
  %18 = getelementptr inbounds i8, ptr %.02428, i64 16
  %19 = getelementptr inbounds i8, ptr %.029, i64 16
  tail call void @llvm.memcpy.p0.p0.i64(ptr noundef nonnull align 8 dereferenceable(16) %.029, ptr noundef nonnull align 8 dereferenceable(16) %.02428, i64 16, i1 false)
  %20 = add nsw i32 %.02527, -1
  %21 = icmp ne i32 %20, 0
  %22 = icmp ult ptr %18, %10
  %23 = select i1 %21, i1 %22, i1 false
  br i1 %23, label %.lr.ph, label %.preheader, !llvm.loop !9

.lr.ph33:                                         ; preds = %.preheader, %.lr.ph33
  %.132 = phi ptr [ %25, %.lr.ph33 ], [ %.0.lcssa, %.preheader ]
  %.12631 = phi i32 [ %24, %.lr.ph33 ], [ %.025.lcssa, %.preheader ]
  %24 = add nsw i32 %.12631, -1
  %25 = getelementptr inbounds i8, ptr %.132, i64 16
  %26 = getelementptr inbounds i8, ptr %.132, i64 12
  store i32 0, ptr %26, align 4
  %27 = icmp ugt i32 %.12631, 1
  br i1 %27, label %.lr.ph33, label %._crit_edge, !llvm.loop !10

._crit_edge:                                      ; preds = %.lr.ph33, %.preheader
  %.1.lcssa = phi ptr [ %.0.lcssa, %.preheader ], [ %25, %.lr.ph33 ]
  store ptr %6, ptr %4, align 8
  %28 = load ptr, ptr %6, align 8
  %29 = getelementptr inbounds i8, ptr %0, i64 16
  store ptr %28, ptr %29, align 8
  %30 = icmp eq i32 %1, -1
  br i1 %30, label %34, label %31

31:                                               ; preds = %._crit_edge
  %32 = getelementptr inbounds i8, ptr %5, i64 -24
  %33 = load ptr, ptr %32, align 8
  br label %34

34:                                               ; preds = %._crit_edge, %31
  %35 = phi ptr [ %33, %31 ], [ %.1.lcssa, %._crit_edge ]
  store ptr %35, ptr %9, align 8
  ret void
}